target datalayout = "e-m:e-p270:32:32-p271:32:32-p272:64:64-i64:64-i128:128-f80:128-n8:16:32:64-S128"
target triple = "x86_64-unknown-linux-gnu"

%struct.QemuMutex = type { %union.pthread_mutex_t, i8 }
%union.pthread_mutex_t = type { %struct.__pthread_mutex_s }
%struct.__pthread_mutex_s = type { i32, i32, i32, i32, i32, i16, i16, %struct.__pthread_internal_list }
%struct.__pthread_internal_list = type { ptr, ptr }
%struct.RAMBlock = type { %struct.rcu_head, ptr, ptr, ptr, i64, i64, i64, ptr, i32, [256 x i8], %struct.anon.2, %struct.anon.3, i32, i64, i64, ptr, ptr, ptr, i8, i64 }
%struct.rcu_head = type { ptr, ptr }
%struct.anon.2 = type { ptr, ptr }
%struct.anon.3 = type { ptr }
%struct.RAMState = type { [2 x %struct.PageSearchStatus], i32, i64, ptr, i64, i32, i32, i64, i64, i64, i64, i64, i64, i8, i8, i64, i64, i64, %struct.QemuMutex, ptr, %struct.QemuMutex, %struct.anon.5, i32 }
%struct.PageSearchStatus = type { ptr, ptr, ptr, i64, i8, i8, i64, i64 }
%struct.anon.5 = type { ptr, ptr }

@.str = private unnamed_addr constant [24 x i8] c"../qemu/migration/ram.c\00", align 1
@ram_state = internal global ptr null, align 8
@qemu_mutex_lock_func = external global ptr, align 8
@__func__.colo_record_bitmap = private unnamed_addr constant [19 x i8] c"colo_record_bitmap\00", align 1

; Function Attrs: nounwind sspstrong uwtable
define internal i32 @test_and_set_bit(i64 noundef %nr, ptr noundef %addr) #0 {
entry:
  %nr.addr = alloca i64, align 8
  %addr.addr = alloca ptr, align 8
  %mask = alloca i64, align 8
  %p = alloca ptr, align 8
  %old = alloca i64, align 8
  store i64 %nr, ptr %nr.addr, align 8
  store ptr %addr, ptr %addr.addr, align 8
  %0 = load i64, ptr %nr.addr, align 8
  %rem = urem i64 %0, 64
  %shl = shl i64 1, %rem
  store i64 %shl, ptr %mask, align 8
  %1 = load ptr, ptr %addr.addr, align 8
  %2 = load i64, ptr %nr.addr, align 8
  %div = udiv i64 %2, 64
  %add.ptr = getelementptr i64, ptr %1, i64 %div
  store ptr %add.ptr, ptr %p, align 8
  %3 = load ptr, ptr %p, align 8
  %4 = load i64, ptr %3, align 8
  store i64 %4, ptr %old, align 8
  %5 = load i64, ptr %old, align 8
  %6 = load i64, ptr %mask, align 8
  %or = or i64 %5, %6
  %7 = load ptr, ptr %p, align 8
  store i64 %or, ptr %7, align 8
  %8 = load i64, ptr %old, align 8
  %9 = load i64, ptr %mask, align 8
  %and = and i64 %8, %9
  %cmp = icmp ne i64 %and, 0
  %conv = zext i1 %cmp to i32
  ret i32 %conv
}

; Function Attrs: nounwind sspstrong uwtable
define dso_local void @colo_record_bitmap(ptr noundef %block, ptr noundef %normal, i32 noundef %pages) #0 {
entry:
  %block.addr = alloca ptr, align 8
  %normal.addr = alloca ptr, align 8
  %pages.addr = alloca i32, align 4
  %_f = alloca ptr, align 8
  %tmp = alloca ptr, align 8
  %atomic-temp = alloca ptr, align 8
  %i = alloca i32, align 4
  %offset = alloca i64, align 8
  store ptr %block, ptr %block.addr, align 8
  store ptr %normal, ptr %normal.addr, align 8
  store i32 %pages, ptr %pages.addr, align 4
  br label %while.cond

while.cond:                                       ; preds = %do.end, %entry
  br i1 false, label %while.body, label %while.end

while.body:                                       ; preds = %while.cond
  br label %do.body

do.body:                                          ; preds = %while.body
  call void @g_assertion_message_expr(ptr noundef null, ptr noundef @.str, i32 noundef 3348, ptr noundef @__func__.colo_record_bitmap, ptr noundef null) #12
  unreachable

do.end:                                           ; No predecessors!
  br label %while.cond

while.end:                                        ; preds = %while.cond
  %0 = load atomic i64, ptr @qemu_mutex_lock_func monotonic, align 8
  store i64 %0, ptr %atomic-temp, align 8
  %1 = load ptr, ptr %atomic-temp, align 8
  store ptr %1, ptr %tmp, align 8
  %2 = load ptr, ptr %tmp, align 8
  store ptr %2, ptr %_f, align 8
  %3 = load ptr, ptr %_f, align 8
  %4 = load ptr, ptr @ram_state, align 8
  %bitmap_mutex = getelementptr inbounds %struct.RAMState, ptr %4, i32 0, i32 18
  call void %3(ptr noundef %bitmap_mutex, ptr noundef @.str, i32 noundef 3348)
  store i32 0, ptr %i, align 4
  br label %for.cond

for.cond:                                         ; preds = %for.inc, %while.end
  %5 = load i32, ptr %i, align 4
  %6 = load i32, ptr %pages.addr, align 4
  %cmp = icmp ult i32 %5, %6
  br i1 %cmp, label %for.body, label %for.end

for.body:                                         ; preds = %for.cond
  %7 = load ptr, ptr %normal.addr, align 8
  %8 = load i32, ptr %i, align 4
  %idxprom = sext i32 %8 to i64
  %arrayidx = getelementptr i64, ptr %7, i64 %idxprom
  %9 = load i64, ptr %arrayidx, align 8
  store i64 %9, ptr %offset, align 8
  %10 = load i64, ptr %offset, align 8
  %shr = lshr i64 %10, 12
  %11 = load ptr, ptr %block.addr, align 8
  %bmap = getelementptr inbounds %struct.RAMBlock, ptr %11, i32 0, i32 15
  %12 = load ptr, ptr %bmap, align 8
  %call = call i32 @test_and_set_bit(i64 noundef %shr, ptr noundef %12)
  %tobool = icmp ne i32 %call, 0
  %lnot = xor i1 %tobool, true
  %lnot.ext = zext i1 %lnot to i32
  %conv = sext i32 %lnot.ext to i64
  %13 = load ptr, ptr @ram_state, align 8
  %migration_dirty_pages = getelementptr inbounds %struct.RAMState, ptr %13, i32 0, i32 17
  %14 = load i64, ptr %migration_dirty_pages, align 8
  %add = add i64 %14, %conv
  store i64 %add, ptr %migration_dirty_pages, align 8
  br label %for.inc

for.inc:                                          ; preds = %for.body
  %15 = load i32, ptr %i, align 4
  %inc = add i32 %15, 1
  store i32 %inc, ptr %i, align 4
  br label %for.cond, !llvm.loop !45

for.end:                                          ; preds = %for.cond
  %16 = load ptr, ptr @ram_state, align 8
  %bitmap_mutex1 = getelementptr inbounds %struct.RAMState, ptr %16, i32 0, i32 18
  call void @qemu_mutex_unlock_impl(ptr noundef %bitmap_mutex1, ptr noundef @.str, i32 noundef 3355)
  ret void
}