; Function Attrs: nounwind sspstrong uwtable
define dso_local void @colo_record_bitmap(ptr noundef readonly captures(none) %block, ptr noundef readonly captures(none) %normal, i32 noundef %pages) local_unnamed_addr #0 {
entry:
  %0 = load atomic i64, ptr @qemu_mutex_lock_func monotonic, align 8
  %1 = inttoptr i64 %0 to ptr
  %2 = load ptr, ptr @ram_state, align 8
  %bitmap_mutex = getelementptr inbounds nuw i8, ptr %2, i64 232
  tail call void %1(ptr noundef nonnull %bitmap_mutex, ptr noundef nonnull @.str, i32 noundef 3348) #18
  %cmp3.not = icmp eq i32 %pages, 0
  br i1 %cmp3.not, label %entry.for.end_crit_edge, label %for.body.lr.ph

entry.for.end_crit_edge:                          ; preds = %entry
  %.pre = load ptr, ptr @ram_state, align 8
  br label %for.end

for.body.lr.ph:                                   ; preds = %entry
  %bmap = getelementptr inbounds nuw i8, ptr %block, i64 384
  br label %for.body

for.body:                                         ; preds = %for.body.lr.ph, %for.body
  %i.04 = phi i32 [ 0, %for.body.lr.ph ], [ %inc, %for.body ]
  %idxprom = sext i32 %i.04 to i64
  %arrayidx = getelementptr i64, ptr %normal, i64 %idxprom
  %3 = load i64, ptr %arrayidx, align 8
  %shr = lshr i64 %3, 12
  %4 = load ptr, ptr %bmap, align 8
  %rem.i = and i64 %shr, 63
  %shl.i = shl nuw i64 1, %rem.i
  %div5.i = lshr i64 %3, 18
  %add.ptr.i = getelementptr i64, ptr %4, i64 %div5.i
  %5 = load i64, ptr %add.ptr.i, align 8
  %or.i = or i64 %shl.i, %5
  store i64 %or.i, ptr %add.ptr.i, align 8
  %6 = lshr i64 %5, %rem.i
  %conv.i = and i64 %6, 1
  %lnot.ext = xor i64 %conv.i, 1
  %7 = load ptr, ptr @ram_state, align 8
  %migration_dirty_pages = getelementptr inbounds nuw i8, ptr %7, i64 224
  %8 = load i64, ptr %migration_dirty_pages, align 8
  %add = add i64 %8, %lnot.ext
  store i64 %add, ptr %migration_dirty_pages, align 8
  %inc = add nuw i32 %i.04, 1
  %exitcond.not = icmp eq i32 %inc, %pages
  br i1 %exitcond.not, label %for.end, label %for.body, !llvm.loop !51

for.end:                                          ; preds = %for.body, %entry.for.end_crit_edge
  %9 = phi ptr [ %.pre, %entry.for.end_crit_edge ], [ %7, %for.body ]
  %bitmap_mutex1 = getelementptr inbounds nuw i8, ptr %9, i64 232
  tail call void @qemu_mutex_unlock_impl(ptr noundef nonnull %bitmap_mutex1, ptr noundef nonnull @.str, i32 noundef 3355) #18
  ret void
}